Certificate:
    Data:
        Version: 3 (0x2)
        Serial Number:
            35:76:f5:b3:1b:5a:68:21:a1:6f:ef:ab:12:12:c9:4d:93:8d:c7:ee
        Signature Algorithm: sha256WithRSAEncryption
        Issuer: CN = \D0\9D\D0\95\D0\93\D0\86\D0\97\D0\93\D0\86 \D0\9A\D0\A3\D3\98\D0\9B\D0\90\D0\9D\D0\94\D0\AB\D0\A0\D0\A3\D0\A8\D0\AB \D0\9E\D0\A0\D0\A2\D0\90\D0\9B\D0\AB\D2\9A (RSA), O = \D0\A0\D0\9C\D0\9A \C2\AB\D0\9C\D0\95\D0\9C\D0\9B\D0\95\D0\9A\D0\95\D0\A2\D0\A2\D0\86\D0\9A \D0\A2\D0\95\D0\A5\D0\9D\D0\98\D0\9A\D0\90\D0\9B\D0\AB\D2\9A \D2\9A\D0\AB\D0\97\D0\9C\D0\95\D0\A2\C2\BB, C = KZ
        Validity
            Not Before: Aug  8 04:26:36 2018 GMT
            Not After : Jun 25 04:26:36 2025 GMT
        Subject: C = KZ, CN = \D2\B0\D0\9B\D0\A2\D0\A2\D0\AB\D2\9A \D0\9A\D0\A3\D3\98\D0\9B\D0\90\D0\9D\D0\94\D0\AB\D0\A0\D0\A3\D0\A8\D0\AB \D0\9E\D0\A0\D0\A2\D0\90\D0\9B\D0\AB\D2\9A (RSA)
        Subject Public Key Info:
            Public Key Algorithm: rsaEncryption
                RSA Public-Key: (4096 bit)
                Modulus:
                    00:ae:5b:cc:73:d5:f4:c6:4b:55:63:3f:d3:99:b6:
                    c5:2b:39:0d:9d:7e:59:0e:a4:4d:ef:8f:31:8d:a1:
                    39:bf:f9:db:bf:9e:a7:d2:1d:be:50:31:b7:34:25:
                    bd:ba:fa:43:a2:3c:26:0f:45:60:e5:85:41:d7:50:
                    12:a3:28:7a:2a:6c:69:3f:2f:6f:b1:79:eb:d5:48:
                    a7:83:37:04:bb:3d:d7:e2:f5:c4:95:61:46:1a:25:
                    82:89:d6:ae:37:7d:9f:73:74:ea:91:2f:82:25:ce:
                    0f:60:71:95:6a:4f:22:7c:55:36:f4:cb:44:8b:83:
                    8e:c3:ba:e4:a3:9e:c9:97:81:cc:b9:cf:85:46:84:
                    2c:6f:53:70:f9:ef:66:df:5d:a2:e7:1a:0b:cf:1c:
                    69:2f:51:15:13:51:0e:6d:37:c9:fb:81:f8:b2:44:
                    fb:99:ee:5f:eb:32:70:c5:4b:90:02:88:d0:01:ee:
                    e0:87:1d:97:a0:e2:92:a3:f6:97:f3:01:dc:14:9c:
                    9d:0e:c2:cf:34:c2:2a:7e:69:ba:ae:91:d3:a5:6e:
                    39:5f:44:2e:10:9a:6f:c2:52:17:6b:f3:af:87:90:
                    b8:70:07:2d:7c:fa:d7:f2:cd:db:6b:c5:20:d1:8c:
                    19:bf:0b:b1:2e:12:90:20:33:ff:7d:2c:62:74:c2:
                    b0:39:5c:00:c8:90:8b:61:5d:f4:76:dc:04:c1:c4:
                    95:7c:10:b2:83:7f:e4:e5:a5:a8:7e:02:b6:64:79:
                    e6:e9:9e:3e:f6:c2:c0:24:66:64:5d:76:9b:ae:89:
                    2b:f2:7a:f4:20:e3:e7:96:2a:10:32:e1:aa:62:27:
                    f8:18:55:32:fd:59:56:95:a9:cb:70:e4:af:8b:6b:
                    1f:76:a0:c9:79:0e:17:48:e3:f5:b5:ac:e1:89:f9:
                    81:21:32:8d:c2:d6:45:bf:57:bd:e6:2d:0e:20:7d:
                    26:90:67:ed:64:46:b1:dc:12:77:3a:2d:86:93:7c:
                    55:c4:fd:2c:e4:89:87:82:4a:cb:ce:d6:22:4f:64:
                    2e:0c:2e:4c:ab:26:7b:35:7d:10:e2:4f:5d:11:81:
                    01:a9:b1:00:62:f1:35:33:c5:7b:40:2b:ea:33:ea:
                    41:7d:2d:0c:98:c6:ac:80:6a:d0:b1:bd:b6:91:82:
                    7a:31:2e:2a:41:52:ba:22:f3:89:4f:f2:0a:a8:e5:
                    0d:4f:91:f3:15:16:30:ab:28:33:a4:74:10:bc:79:
                    64:b7:c3:c6:55:cc:0a:f6:6d:45:e9:6c:1b:29:e7:
                    2f:d9:2d:8d:b9:1f:96:40:f2:36:69:4d:90:7f:78:
                    4b:e8:ea:22:d0:2e:30:1f:89:e8:15:b9:1f:df:8f:
                    aa:5d:55
                Exponent: 65537 (0x10001)
        X509v3 extensions:
            X509v3 Subject Key Identifier: 
                5B:6A:74:11
            X509v3 Authority Key Identifier: 
                keyid:D4:A5:18:69:EF:8B:3F:15:FD:EA:AD:BD:47:E0:94:81:6B:06:6A:3B
                DirName:/CN=\xD0\x9D\xD0\x95\xD0\x93\xD0\x86\xD0\x97\xD0\x93\xD0\x86 \xD0\x9A\xD0\xA3\xD3\x98\xD0\x9B\xD0\x90\xD0\x9D\xD0\x94\xD0\xAB\xD0\xA0\xD0\xA3\xD0\xA8\xD0\xAB \xD0\x9E\xD0\xA0\xD0\xA2\xD0\x90\xD0\x9B\xD0\xAB\xD2\x9A (RSA)
                serial:54:A5:18:69:EF:8B:3F:15:FD:EA:AD:BD:47:E0:94:81:6B:06:6A:3B

            X509v3 Basic Constraints: critical
                CA:TRUE
            X509v3 Key Usage: critical
                Certificate Sign, CRL Sign
            Authority Information Access: 
                CA Issuers - URI:http://root.gov.kz/cert/root_rsa.cer

            X509v3 Certificate Policies: 
                Policy: 1.2.398.3.3.1.1
                  CPS: http://pki.gov.kz/cps

            X509v3 CRL Distribution Points: 

                Full Name:
                  URI:http://crl.root.gov.kz/rsa.crl
               URL=http://crl1.root.gov.kz/rsa.crl

    Signature Algorithm: sha256WithRSAEncryption
         0d:dc:7c:6b:4d:59:dc:73:8c:6d:5a:ef:41:c4:19:55:2f:32:
         cc:82:51:09:86:84:31:b2:d8:a1:6c:83:b0:ca:68:30:1e:bc:
         8d:c8:47:27:9a:2f:18:4e:10:77:62:7f:8a:1c:b3:19:ee:3e:
         bd:1a:ed:03:dc:ca:cb:df:15:ae:b2:4e:f9:63:d9:a2:26:de:
         a5:d8:fc:b6:be:2e:53:a5:8c:d0:a8:8f:71:04:ce:31:52:c9:
         25:21:02:fd:4d:02:f9:e5:9a:e6:3e:8e:a5:b4:67:42:e4:2e:
         25:76:40:ff:97:94:27:95:8c:09:92:5a:7b:ab:e5:22:e5:6c:
         35:1e:df:9c:98:07:75:c6:27:c5:25:ef:80:b1:ed:f5:89:0d:
         d4:f6:4e:b8:21:e6:14:d2:34:f5:4f:e2:b2:25:2c:d3:4e:1d:
         47:17:b9:6b:40:05:55:7c:16:cb:6b:f7:0d:c2:fa:2b:a5:2a:
         f6:9b:41:a2:56:84:cb:a9:b0:60:f5:ee:54:54:5a:64:cc:91:
         14:02:f7:d2:fa:c8:89:4e:e4:f1:d1:c6:b0:dc:d8:d1:8d:9f:
         f9:cc:25:7c:eb:56:d3:8f:46:22:44:d8:98:4e:83:57:7c:e4:
         34:02:ac:d0:08:52:d5:a0:d9:ab:f7:a9:b1:5d:91:e5:cf:09:
         7b:7d:c4:17:81:3e:4a:47:03:b8:02:b5:87:fc:6b:f1:cc:f1:
         dc:18:be:b5:da:25:b6:58:2a:08:75:d3:fd:d5:d7:eb:c2:f7:
         8a:87:a5:39:3b:0b:4d:f3:d8:c5:53:b6:22:d9:b7:3c:6a:9f:
         73:75:79:93:2b:f3:d0:6a:e0:73:d3:3c:c8:d0:0a:0e:e9:dc:
         9f:5a:b0:ce:2a:32:f5:98:0f:89:63:53:aa:69:bd:33:f2:a3:
         c9:54:d3:de:aa:03:98:fb:1f:14:79:06:c2:21:2a:50:15:84:
         c8:24:96:12:30:c0:2d:b0:e2:22:f2:36:3e:e3:b1:e3:c3:b7:
         72:80:7b:75:f5:b4:b3:60:a5:85:f3:af:2e:b5:0a:0c:cc:55:
         24:9d:72:25:73:99:6f:bf:1c:91:f2:e5:9e:59:49:af:00:a4:
         3d:2e:da:e3:72:ba:cc:af:1b:6b:9c:e2:eb:74:dc:00:04:82:
         46:94:7e:08:f7:04:9c:28:47:3e:1e:2c:f1:d0:8f:bb:da:1e:
         c6:8e:3f:d1:97:57:6c:c0:de:b1:8c:32:96:77:65:7a:ed:96:
         19:c1:5a:c6:24:96:8b:1f:49:a5:ab:39:d0:01:f4:aa:78:a3:
         7c:39:46:95:51:59:48:f7:01:10:da:dd:6f:73:3b:88:d8:16:
         21:bc:da:be:d2:86:ee:74
-----BEGIN CERTIFICATE-----
MIIHfzCCBWegAwIBAgIUNXb1sxtaaCGhb++rEhLJTZONx+4wDQYJKoZIhvcNAQEL
BQAwgaIxRTBDBgNVBAMMPNCd0JXQk9CG0JfQk9CGINCa0KPTmNCb0JDQndCU0KvQ
oNCj0KjQqyDQntCg0KLQkNCb0KvSmiAoUlNBKTFMMEoGA1UECgxD0KDQnNCaIMKr
0JzQldCc0JvQldCa0JXQotCi0IbQmiDQotCV0KXQndCY0JrQkNCb0KvSmiDSmtCr
0JfQnNCV0KLCuzELMAkGA1UEBhMCS1owHhcNMTgwODA4MDQyNjM2WhcNMjUwNjI1
MDQyNjM2WjBSMQswCQYDVQQGEwJLWjFDMEEGA1UEAww60rDQm9Ci0KLQq9KaINCa
0KPTmNCb0JDQndCU0KvQoNCj0KjQqyDQntCg0KLQkNCb0KvSmiAoUlNBKTCCAiIw
DQYJKoZIhvcNAQEBBQADggIPADCCAgoCggIBAK5bzHPV9MZLVWM/05m2xSs5DZ1+
WQ6kTe+PMY2hOb/527+ep9IdvlAxtzQlvbr6Q6I8Jg9FYOWFQddQEqMoeipsaT8v
b7F569VIp4M3BLs91+L1xJVhRholgonWrjd9n3N06pEvgiXOD2BxlWpPInxVNvTL
RIuDjsO65KOeyZeBzLnPhUaELG9TcPnvZt9doucaC88caS9RFRNRDm03yfuB+LJE
+5nuX+sycMVLkAKI0AHu4Icdl6DikqP2l/MB3BScnQ7CzzTCKn5puq6R06VuOV9E
LhCab8JSF2vzr4eQuHAHLXz61/LN22vFINGMGb8LsS4SkCAz/30sYnTCsDlcAMiQ
i2Fd9HbcBMHElXwQsoN/5OWlqH4CtmR55umePvbCwCRmZF12m66JK/J69CDj55Yq
EDLhqmIn+BhVMv1ZVpWpy3Dkr4trH3agyXkOF0jj9bWs4Yn5gSEyjcLWRb9XveYt
DiB9JpBn7WRGsdwSdzothpN8VcT9LOSJh4JKy87WIk9kLgwuTKsmezV9EOJPXRGB
AamxAGLxNTPFe0Ar6jPqQX0tDJjGrIBq0LG9tpGCejEuKkFSuiLziU/yCqjlDU+R
8xUWMKsoM6R0ELx5ZLfDxlXMCvZtRelsGynnL9ktjbkflkDyNmlNkH94S+jqItAu
MB+J6BW5H9+Pql1VAgMBAAGjggH6MIIB9jANBgNVHQ4EBgQEW2p0ETCB4gYDVR0j
BIHaMIHXgBTUpRhp74s/Ff3qrb1H4JSBawZqO6GBqKSBpTCBojFFMEMGA1UEAww8
0J3QldCT0IbQl9CT0IYg0JrQo9OY0JvQkNCd0JTQq9Cg0KPQqNCrINCe0KDQotCQ
0JvQq9KaIChSU0EpMUwwSgYDVQQKDEPQoNCc0JogwqvQnNCV0JzQm9CV0JrQldCi
0KLQhtCaINCi0JXQpdCd0JjQmtCQ0JvQq9KaINKa0KvQl9Cc0JXQosK7MQswCQYD
VQQGEwJLWoIUVKUYae+LPxX96q29R+CUgWsGajswDwYDVR0TAQH/BAUwAwEB/zAO
BgNVHQ8BAf8EBAMCAQYwQAYIKwYBBQUHAQEENDAyMDAGCCsGAQUFBzAChiRodHRw
Oi8vcm9vdC5nb3Yua3ovY2VydC9yb290X3JzYS5jZXIwOQYDVR0gBDIwMDAuBgcq
gw4DAwEBMCMwIQYIKwYBBQUHAgEWFWh0dHA6Ly9wa2kuZ292Lmt6L2NwczBiBgNV
HR8EWzBZMFegVaBThlFodHRwOi8vY3JsLnJvb3QuZ292Lmt6L3JzYS5jcmwKICAg
ICAgICAgICAgICAgVVJMPWh0dHA6Ly9jcmwxLnJvb3QuZ292Lmt6L3JzYS5jcmww
DQYJKoZIhvcNAQELBQADggIBAA3cfGtNWdxzjG1a70HEGVUvMsyCUQmGhDGy2KFs
g7DKaDAevI3IRyeaLxhOEHdif4ocsxnuPr0a7QPcysvfFa6yTvlj2aIm3qXY/La+
LlOljNCoj3EEzjFSySUhAv1NAvnlmuY+jqW0Z0LkLiV2QP+XlCeVjAmSWnur5SLl
bDUe35yYB3XGJ8Ul74Cx7fWJDdT2Trgh5hTSNPVP4rIlLNNOHUcXuWtABVV8Fstr
9w3C+iulKvabQaJWhMupsGD17lRUWmTMkRQC99L6yIlO5PHRxrDc2NGNn/nMJXzr
VtOPRiJE2JhOg1d85DQCrNAIUtWg2av3qbFdkeXPCXt9xBeBPkpHA7gCtYf8a/HM
8dwYvrXaJbZYKgh10/3V1+vC94qHpTk7C03z2MVTtiLZtzxqn3N1eZMr89Bq4HPT
PMjQCg7p3J9asM4qMvWYD4ljU6ppvTPyo8lU096qA5j7HxR5BsIhKlAVhMgklhIw
wC2w4iLyNj7jsePDt3KAe3X1tLNgpYXzry61CgzMVSSdciVzmW+/HJHy5Z5ZSa8A
pD0u2uNyusyvG2uc4ut03AAEgkaUfgj3BJwoRz4eLPHQj7vaHsaOP9GXV2zA3rGM
MpZ3ZXrtlhnBWsYklosfSaWrOdAB9Kp4o3w5RpVRWUj3ARDa3W9zO4jYFiG82r7S
hu50
-----END CERTIFICATE-----
